target datalayout = "e-m:e-p270:32:32-p271:32:32-p272:64:64-i64:64-i128:128-f80:128-n8:16:32:64-S128"
target triple = "x86_64-pc-linux-gnu"

%struct.nghttp2_map = type { ptr, ptr, i64, i32, i32 }
%struct.nghttp2_map_bucket = type { i32, i32, ptr }

@stderr = external global ptr, align 8
@.str = private unnamed_addr constant [13 x i8] c"@%u <EMPTY>\0A\00", align 1
@.str.1 = private unnamed_addr constant [44 x i8] c"@%u hash=%08x key=%d base=%zu distance=%zu\0A\00", align 1

; Function Attrs: nounwind uwtable
define internal i64 @distance(i32 noundef %0, i32 noundef %1, ptr noundef %2, i64 noundef %3) #0 {
  %5 = alloca i32, align 4
  %6 = alloca i32, align 4
  %7 = alloca ptr, align 8
  %8 = alloca i64, align 8
  store i32 %0, ptr %5, align 4
  store i32 %1, ptr %6, align 4
  store ptr %2, ptr %7, align 8
  store i64 %3, ptr %8, align 8
  %9 = load i64, ptr %8, align 8
  %10 = load ptr, ptr %7, align 8
  %11 = getelementptr inbounds %struct.nghttp2_map_bucket, ptr %10, i32 0, i32 0
  %12 = load i32, ptr %11, align 8
  %13 = load i32, ptr %6, align 4
  %14 = call i64 @h2idx(i32 noundef %12, i32 noundef %13)
  %15 = sub i64 %9, %14
  %16 = load i32, ptr %5, align 4
  %17 = sub i32 %16, 1
  %18 = zext i32 %17 to i64
  %19 = and i64 %15, %18
  ret i64 %19
}

; Function Attrs: nounwind uwtable
define internal i64 @h2idx(i32 noundef %0, i32 noundef %1) #0 {
  %3 = alloca i32, align 4
  %4 = alloca i32, align 4
  store i32 %0, ptr %3, align 4
  store i32 %1, ptr %4, align 4
  %5 = load i32, ptr %3, align 4
  %6 = load i32, ptr %4, align 4
  %7 = sub i32 32, %6
  %8 = lshr i32 %5, %7
  %9 = zext i32 %8 to i64
  ret i64 %9
}

; Function Attrs: nounwind uwtable
define dso_local void @nghttp2_map_print_distance(ptr noundef %0) #0 {
  %2 = alloca ptr, align 8
  %3 = alloca i32, align 4
  %4 = alloca i64, align 8
  %5 = alloca ptr, align 8
  store ptr %0, ptr %2, align 8
  store i32 0, ptr %3, align 4
  br label %6

6:                                                ; preds = %54, %1
  %7 = load i32, ptr %3, align 4
  %8 = load ptr, ptr %2, align 8
  %9 = getelementptr inbounds %struct.nghttp2_map, ptr %8, i32 0, i32 3
  %10 = load i32, ptr %9, align 8
  %11 = icmp ult i32 %7, %10
  br i1 %11, label %12, label %57

12:                                               ; preds = %6
  %13 = load ptr, ptr %2, align 8
  %14 = getelementptr inbounds %struct.nghttp2_map, ptr %13, i32 0, i32 0
  %15 = load ptr, ptr %14, align 8
  %16 = load i32, ptr %3, align 4
  %17 = zext i32 %16 to i64
  %18 = getelementptr inbounds %struct.nghttp2_map_bucket, ptr %15, i64 %17
  store ptr %18, ptr %5, align 8
  %19 = load ptr, ptr %5, align 8
  %20 = getelementptr inbounds %struct.nghttp2_map_bucket, ptr %19, i32 0, i32 2
  %21 = load ptr, ptr %20, align 8
  %22 = icmp eq ptr %21, null
  br i1 %22, label %23, label %27

23:                                               ; preds = %12
  %24 = load ptr, ptr @stderr, align 8
  %25 = load i32, ptr %3, align 4
  %26 = call i32 (ptr, ptr, ...) @fprintf(ptr noundef %24, ptr noundef @.str, i32 noundef %25) #5
  br label %54

27:                                               ; preds = %12
  %28 = load ptr, ptr %5, align 8
  %29 = getelementptr inbounds %struct.nghttp2_map_bucket, ptr %28, i32 0, i32 0
  %30 = load i32, ptr %29, align 8
  %31 = load ptr, ptr %2, align 8
  %32 = getelementptr inbounds %struct.nghttp2_map, ptr %31, i32 0, i32 4
  %33 = load i32, ptr %32, align 4
  %34 = call i64 @h2idx(i32 noundef %30, i32 noundef %33)
  store i64 %34, ptr %4, align 8
  %35 = load ptr, ptr @stderr, align 8
  %36 = load i32, ptr %3, align 4
  %37 = load ptr, ptr %5, align 8
  %38 = getelementptr inbounds %struct.nghttp2_map_bucket, ptr %37, i32 0, i32 0
  %39 = load i32, ptr %38, align 8
  %40 = load ptr, ptr %5, align 8
  %41 = getelementptr inbounds %struct.nghttp2_map_bucket, ptr %40, i32 0, i32 1
  %42 = load i32, ptr %41, align 4
  %43 = load i64, ptr %4, align 8
  %44 = load ptr, ptr %2, align 8
  %45 = getelementptr inbounds %struct.nghttp2_map, ptr %44, i32 0, i32 3
  %46 = load i32, ptr %45, align 8
  %47 = load ptr, ptr %2, align 8
  %48 = getelementptr inbounds %struct.nghttp2_map, ptr %47, i32 0, i32 4
  %49 = load i32, ptr %48, align 4
  %50 = load ptr, ptr %5, align 8
  %51 = load i64, ptr %4, align 8
  %52 = call i64 @distance(i32 noundef %46, i32 noundef %49, ptr noundef %50, i64 noundef %51)
  %53 = call i32 (ptr, ptr, ...) @fprintf(ptr noundef %35, ptr noundef @.str.1, i32 noundef %36, i32 noundef %39, i32 noundef %42, i64 noundef %43, i64 noundef %52) #5
  br label %54

54:                                               ; preds = %27, %23
  %55 = load i32, ptr %3, align 4
  %56 = add i32 %55, 1
  store i32 %56, ptr %3, align 4
  br label %6, !llvm.loop !8

57:                                               ; preds = %6
  ret void
}