; Function Attrs: nofree nounwind uwtable
define dso_local void @nghttp2_map_print_distance(ptr noundef readonly captures(none) %0) local_unnamed_addr #2 {
  %2 = getelementptr inbounds nuw i8, ptr %0, i64 24
  %3 = load i32, ptr %2, align 8
  %.not = icmp eq i32 %3, 0
  br i1 %.not, label %._crit_edge, label %.lr.ph

.lr.ph:                                           ; preds = %1
  %4 = getelementptr inbounds nuw i8, ptr %0, i64 28
  br label %5

5:                                                ; preds = %.lr.ph, %26
  %indvars.iv = phi i64 [ 0, %.lr.ph ], [ %indvars.iv.next, %26 ]
  %6 = load ptr, ptr %0, align 8
  %7 = getelementptr inbounds nuw %struct.nghttp2_map_bucket, ptr %6, i64 %indvars.iv
  %8 = getelementptr inbounds nuw i8, ptr %7, i64 8
  %9 = load ptr, ptr %8, align 8
  %10 = icmp eq ptr %9, null
  br i1 %10, label %11, label %15

11:                                               ; preds = %5
  %12 = load ptr, ptr @stderr, align 8
  %13 = trunc nuw i64 %indvars.iv to i32
  %14 = tail call i32 (ptr, ptr, ...) @fprintf(ptr noundef %12, ptr noundef nonnull @.str, i32 noundef %13) #11
  br label %26

15:                                               ; preds = %5
  %16 = load i32, ptr %7, align 8
  %17 = load i32, ptr %4, align 4
  %18 = sub i32 32, %17
  %19 = lshr i32 %16, %18
  %20 = zext i32 %19 to i64
  %21 = load ptr, ptr @stderr, align 8
  %22 = getelementptr inbounds nuw i8, ptr %7, i64 4
  %23 = load i32, ptr %22, align 4
  %24 = trunc nuw i64 %indvars.iv to i32
  %25 = tail call i32 (ptr, ptr, ...) @fprintf(ptr noundef %21, ptr noundef nonnull @.str.1, i32 noundef %24, i32 noundef %16, i32 noundef %23, i64 noundef %20, i64 noundef 0) #11
  br label %26

26:                                               ; preds = %15, %11
  %indvars.iv.next = add nuw nsw i64 %indvars.iv, 1
  %27 = load i32, ptr %2, align 8
  %28 = zext i32 %27 to i64
  %29 = icmp samesign ult i64 %indvars.iv.next, %28
  br i1 %29, label %5, label %._crit_edge, !llvm.loop !8

._crit_edge:                                      ; preds = %26, %1
  ret void
}